target datalayout = "e-m:e-p270:32:32-p271:32:32-p272:64:64-i64:64-i128:128-f80:128-n8:16:32:64-S128"
target triple = "x86_64-pc-linux-gnu"

%class.SafeThreadsListPtr = type <{ ptr, ptr, ptr, i8, i8, [6 x i8] }>
%class.ThreadsListHandle = type { %class.SafeThreadsListPtr, %class.elapsedTimer }
%class.elapsedTimer = type <{ i64, i64, i8, [7 x i8] }>
%class.FastThreadsListHandle = type { ptr, %class.ThreadsListHandle }

@_ZN6Thread12_thr_currentE = external thread_local global ptr, align 8
@_ZN17ThreadsListHandleC1EP6Thread = hidden unnamed_addr alias void (ptr, ptr), ptr @_ZN17ThreadsListHandleC2EP6Thread

; Function Attrs: mustprogress nounwind uwtable
define linkonce_odr hidden noundef ptr @_ZN6Thread15current_or_nullEv() #1 comdat align 2 {
  %1 = call align 8 ptr @llvm.threadlocal.address.p0(ptr align 8 @_ZN6Thread12_thr_currentE)
  %2 = load ptr, ptr %1, align 8
  ret ptr %2
}

; Function Attrs: mustprogress nounwind uwtable
define linkonce_odr hidden noundef ptr @_ZN6Thread7currentEv() #1 comdat align 2 {
  %1 = alloca ptr, align 8
  %2 = call noundef ptr @_ZN6Thread15current_or_nullEv()
  store ptr %2, ptr %1, align 8
  %3 = load ptr, ptr %1, align 8
  ret ptr %3
}

; Function Attrs: mustprogress nounwind uwtable
define hidden void @_ZN21FastThreadsListHandleC2EP7oopDescP10JavaThread(ptr noundef nonnull align 8 dereferenceable(64) %0, ptr noundef %1, ptr noundef %2) unnamed_addr #1 align 2 {
  %4 = alloca ptr, align 8
  %5 = alloca ptr, align 8
  %6 = alloca ptr, align 8
  store ptr %0, ptr %4, align 8
  store ptr %1, ptr %5, align 8
  store ptr %2, ptr %6, align 8
  %7 = load ptr, ptr %4, align 8
  %8 = getelementptr inbounds %class.FastThreadsListHandle, ptr %7, i32 0, i32 0
  store ptr null, ptr %8, align 8
  %9 = getelementptr inbounds %class.FastThreadsListHandle, ptr %7, i32 0, i32 1
  %10 = call noundef ptr @_ZN6Thread7currentEv()
  call void @_ZN17ThreadsListHandleC1EP6Thread(ptr noundef nonnull align 8 dereferenceable(56) %9, ptr noundef %10)
  %11 = load ptr, ptr %6, align 8
  %12 = icmp ne ptr %11, null
  br i1 %12, label %13, label %17

13:                                               ; preds = %3
  %14 = load ptr, ptr %5, align 8
  %15 = call noundef ptr @_ZN16java_lang_Thread6threadEP7oopDesc(ptr noundef %14)
  %16 = getelementptr inbounds %class.FastThreadsListHandle, ptr %7, i32 0, i32 0
  store ptr %15, ptr %16, align 8
  br label %17

17:                                               ; preds = %13, %3
  ret void
}