; Function Attrs: mustprogress nounwind uwtable
define hidden void @_ZN21FastThreadsListHandleC2EP7oopDescP10JavaThread(ptr noundef nonnull align 8 dereferenceable(64) %0, ptr noundef %1, ptr noundef readnone %2) unnamed_addr #1 align 2 {
  store ptr null, ptr %0, align 8
  %4 = getelementptr inbounds i8, ptr %0, i64 8
  %5 = tail call align 8 ptr @llvm.threadlocal.address.p0(ptr align 8 @_ZN6Thread12_thr_currentE)
  %6 = load ptr, ptr %5, align 8
  store ptr null, ptr %4, align 8
  %7 = getelementptr inbounds i8, ptr %0, i64 16
  store ptr %6, ptr %7, align 8
  %8 = getelementptr inbounds i8, ptr %0, i64 24
  store ptr null, ptr %8, align 8
  %9 = getelementptr inbounds i8, ptr %0, i64 32
  store i8 0, ptr %9, align 8
  %10 = getelementptr inbounds i8, ptr %0, i64 33
  store i8 1, ptr %10, align 1
  %11 = getelementptr inbounds i8, ptr %6, i64 392
  %12 = load ptr, ptr %11, align 8
  store ptr %12, ptr %4, align 8
  store ptr %4, ptr %11, align 8
  %13 = load ptr, ptr %7, align 8
  %14 = getelementptr inbounds i8, ptr %13, i64 384
  %15 = load volatile ptr, ptr %14, align 8
  tail call void asm sideeffect "", "~{memory},~{dirflag},~{fpsr},~{flags}"() #15, !srcloc !6
  %16 = icmp eq ptr %15, null
  %17 = load ptr, ptr %4, align 8
  %18 = icmp eq ptr %17, null
  %or.cond.i.i.i = select i1 %16, i1 %18, i1 false
  br i1 %or.cond.i.i.i, label %.preheader.i.i.i, label %32

.preheader.i.i.i:                                 ; preds = %3, %.preheader.i.i.i.backedge
  %19 = load volatile ptr, ptr @_ZN17ThreadsSMRSupport17_java_thread_listE, align 8
  tail call void asm sideeffect "", "~{memory},~{dirflag},~{fpsr},~{flags}"() #15, !srcloc !6
  %20 = ptrtoint ptr %19 to i64
  %21 = or i64 %20, 1
  %22 = inttoptr i64 %21 to ptr
  %23 = load ptr, ptr %7, align 8
  %24 = getelementptr inbounds i8, ptr %23, i64 384
  %25 = tail call ptr asm sideeffect "xchgq ($2), $0", "=r,0,r,~{memory},~{dirflag},~{fpsr},~{flags}"(ptr nonnull %22, ptr nonnull %24) #15, !srcloc !7
  %26 = load volatile ptr, ptr @_ZN17ThreadsSMRSupport17_java_thread_listE, align 8
  tail call void asm sideeffect "", "~{memory},~{dirflag},~{fpsr},~{flags}"() #15, !srcloc !6
  %.not.i.i.i.i = icmp eq ptr %26, %19
  br i1 %.not.i.i.i.i, label %27, label %.preheader.i.i.i.backedge

27:                                               ; preds = %.preheader.i.i.i
  %28 = load ptr, ptr %7, align 8
  %29 = getelementptr inbounds i8, ptr %28, i64 384
  %30 = tail call noundef ptr asm sideeffect "lock cmpxchgq $1,($3)", "={ax},r,{ax},r,~{cc},~{memory},~{dirflag},~{fpsr},~{flags}"(ptr %19, ptr nonnull %22, ptr nonnull %29) #15, !srcloc !8
  %31 = icmp eq ptr %30, %22
  br i1 %31, label %_ZN18SafeThreadsListPtr29acquire_stable_list_fast_pathEv.exit.i.i.i, label %.preheader.i.i.i.backedge

.preheader.i.i.i.backedge:                        ; preds = %27, %.preheader.i.i.i
  br label %.preheader.i.i.i, !llvm.loop !9

_ZN18SafeThreadsListPtr29acquire_stable_list_fast_pathEv.exit.i.i.i: ; preds = %27
  store ptr %19, ptr %8, align 8
  br label %_ZN18SafeThreadsListPtrC2EP6Threadb.exit.i

32:                                               ; preds = %3
  tail call void @_ZN18SafeThreadsListPtr31acquire_stable_list_nested_pathEv(ptr noundef nonnull align 8 dereferenceable(26) %4)
  br label %_ZN18SafeThreadsListPtrC2EP6Threadb.exit.i

_ZN18SafeThreadsListPtrC2EP6Threadb.exit.i:       ; preds = %32, %_ZN18SafeThreadsListPtr29acquire_stable_list_fast_pathEv.exit.i.i.i
  %33 = getelementptr inbounds i8, ptr %0, i64 40
  %34 = getelementptr inbounds i8, ptr %0, i64 56
  store i8 0, ptr %34, align 8
  store i64 0, ptr %33, align 8
  %35 = load i8, ptr @EnableThreadSMRStatistics, align 1
  %36 = trunc i8 %35 to i1
  br i1 %36, label %37, label %_ZN17ThreadsListHandleC2EP6Thread.exit

37:                                               ; preds = %_ZN18SafeThreadsListPtrC2EP6Threadb.exit.i
  tail call void @_ZN12elapsedTimer5startEv(ptr noundef nonnull align 8 dereferenceable(17) %33) #15
  br label %_ZN17ThreadsListHandleC2EP6Thread.exit

_ZN17ThreadsListHandleC2EP6Thread.exit:           ; preds = %_ZN18SafeThreadsListPtrC2EP6Threadb.exit.i, %37
  %.not = icmp eq ptr %2, null
  br i1 %.not, label %40, label %38

38:                                               ; preds = %_ZN17ThreadsListHandleC2EP6Thread.exit
  %39 = tail call noundef ptr @_ZN16java_lang_Thread6threadEP7oopDesc(ptr noundef %1) #15
  store ptr %39, ptr %0, align 8
  br label %40

40:                                               ; preds = %38, %_ZN17ThreadsListHandleC2EP6Thread.exit
  ret void
}